; Function Attrs: mustprogress uwtable
define dso_local void @_ZN7AstNode19dumpJsonMetaFileGdbEPKc(ptr noundef %0) local_unnamed_addr #4 align 2 personality ptr @__gxx_personality_v0 {
  %2 = alloca %"class.std::__cxx11::basic_string", align 8
  %3 = alloca %"class.std::allocator", align 1
  call void @_ZNSaIcEC1Ev(ptr noundef nonnull align 1 dereferenceable(1) %3) #24
  %4 = invoke noundef ptr @_ZNSt7__cxx1112basic_stringIcSt11char_traitsIcESaIcEE13_M_local_dataEv(ptr noundef nonnull align 8 dereferenceable(32) %2)
          to label %.noexc unwind label %14

.noexc:                                           ; preds = %1
  invoke void @_ZNSt7__cxx1112basic_stringIcSt11char_traitsIcESaIcEE12_Alloc_hiderC1EPcRKS3_(ptr noundef nonnull align 8 dereferenceable(8) %2, ptr noundef %4, ptr noundef nonnull align 1 dereferenceable(1) %3)
          to label %.noexc4 unwind label %14

.noexc4:                                          ; preds = %.noexc
  %5 = icmp eq ptr %0, null
  br i1 %5, label %6, label %10

6:                                                ; preds = %.noexc4
  invoke void @_ZSt19__throw_logic_errorPKc(ptr noundef nonnull @.str.1162) #25
          to label %7 unwind label %8

7:                                                ; preds = %6
  unreachable

8:                                                ; preds = %10, %6
  %9 = landingpad { ptr, i32 }
          cleanup
  call void @_ZNSaIcED2Ev(ptr noundef nonnull align 1 dereferenceable(1) %2) #24
  br label %.body

10:                                               ; preds = %.noexc4
  %11 = call noundef i64 @strlen(ptr noundef nonnull dereferenceable(1) %0) #24
  %12 = getelementptr inbounds i8, ptr %0, i64 %11
  invoke void @_ZNSt7__cxx1112basic_stringIcSt11char_traitsIcESaIcEE12_M_constructIPKcEEvT_S8_St20forward_iterator_tag(ptr noundef nonnull align 8 dereferenceable(32) %2, ptr noundef nonnull %0, ptr noundef nonnull %12)
          to label %_ZNSt7__cxx1112basic_stringIcSt11char_traitsIcESaIcEEC2IS3_EEPKcRKS3_.exit unwind label %8

_ZNSt7__cxx1112basic_stringIcSt11char_traitsIcESaIcEEC2IS3_EEPKcRKS3_.exit: ; preds = %10
  invoke void @_ZN7AstNode16dumpJsonMetaFileERKNSt7__cxx1112basic_stringIcSt11char_traitsIcESaIcEEE(ptr noundef nonnull align 8 dereferenceable(32) %2)
          to label %13 unwind label %16

13:                                               ; preds = %_ZNSt7__cxx1112basic_stringIcSt11char_traitsIcESaIcEEC2IS3_EEPKcRKS3_.exit
  call void @_ZNSt7__cxx1112basic_stringIcSt11char_traitsIcESaIcEED1Ev(ptr noundef nonnull align 8 dereferenceable(32) %2) #24
  call void @_ZNSaIcED1Ev(ptr noundef nonnull align 1 dereferenceable(1) %3) #24
  ret void

14:                                               ; preds = %.noexc, %1
  %15 = landingpad { ptr, i32 }
          cleanup
  br label %.body

16:                                               ; preds = %_ZNSt7__cxx1112basic_stringIcSt11char_traitsIcESaIcEEC2IS3_EEPKcRKS3_.exit
  %17 = landingpad { ptr, i32 }
          cleanup
  call void @_ZNSt7__cxx1112basic_stringIcSt11char_traitsIcESaIcEED1Ev(ptr noundef nonnull align 8 dereferenceable(32) %2) #24
  br label %.body

.body:                                            ; preds = %14, %8, %16
  %.pn = phi { ptr, i32 } [ %17, %16 ], [ %15, %14 ], [ %9, %8 ]
  call void @_ZNSaIcED1Ev(ptr noundef nonnull align 1 dereferenceable(1) %3) #24
  resume { ptr, i32 } %.pn
}